target datalayout = "e-m:e-p270:32:32-p271:32:32-p272:64:64-i64:64-i128:128-f80:128-n8:16:32:64-S128"
target triple = "x86_64-pc-linux-gnu"

%struct.H5O_token_t = type { [16 x i8] }
%struct.trav_info_t = type { i64, i64, ptr, i64, ptr, %struct.symlink_trav_t, ptr }
%struct.symlink_trav_t = type { i64, i64, ptr, i8 }
%struct.trav_path_t = type { ptr, i32, %struct.H5O_token_t, i64 }

; Function Attrs: nounwind willreturn memory(read) uwtable
define i64 @h5trav_getindex(ptr noundef %0, ptr noundef %1) #8 {
  %3 = alloca i64, align 8
  %4 = alloca ptr, align 8
  %5 = alloca ptr, align 8
  %6 = alloca i64, align 8
  %7 = alloca i32, align 4
  store ptr %0, ptr %4, align 8, !tbaa !7
  store ptr %1, ptr %5, align 8, !tbaa !10
  call void @llvm.lifetime.start.p0(i64 8, ptr %6) #10
  store i64 0, ptr %6, align 8, !tbaa !21
  br label %8

8:                                                ; preds = %42, %2
  %9 = load i64, ptr %6, align 8, !tbaa !21
  %10 = load ptr, ptr %4, align 8, !tbaa !7
  %11 = getelementptr inbounds nuw %struct.trav_info_t, ptr %10, i32 0, i32 1
  %12 = load i64, ptr %11, align 8, !tbaa !12
  %13 = icmp ult i64 %9, %12
  br i1 %13, label %14, label %45

14:                                               ; preds = %8
  %15 = load ptr, ptr %5, align 8, !tbaa !10
  %16 = load ptr, ptr %4, align 8, !tbaa !7
  %17 = getelementptr inbounds nuw %struct.trav_info_t, ptr %16, i32 0, i32 4
  %18 = load ptr, ptr %17, align 8, !tbaa !20
  %19 = load i64, ptr %6, align 8, !tbaa !21
  %20 = getelementptr inbounds nuw %struct.trav_path_t, ptr %18, i64 %19
  %21 = getelementptr inbounds nuw %struct.trav_path_t, ptr %20, i32 0, i32 0
  %22 = load ptr, ptr %21, align 8, !tbaa !22
  %23 = call i32 @strcmp(ptr noundef %15, ptr noundef %22) #12
  %24 = icmp eq i32 %23, 0
  br i1 %24, label %25, label %27

25:                                               ; preds = %14
  %26 = load i64, ptr %6, align 8, !tbaa !21
  store i64 %26, ptr %3, align 8
  store i32 1, ptr %7, align 4
  br label %46

27:                                               ; preds = %14
  %28 = load ptr, ptr %5, align 8, !tbaa !10
  %29 = load ptr, ptr %4, align 8, !tbaa !7
  %30 = getelementptr inbounds nuw %struct.trav_info_t, ptr %29, i32 0, i32 4
  %31 = load ptr, ptr %30, align 8, !tbaa !20
  %32 = load i64, ptr %6, align 8, !tbaa !21
  %33 = getelementptr inbounds nuw %struct.trav_path_t, ptr %31, i64 %32
  %34 = getelementptr inbounds nuw %struct.trav_path_t, ptr %33, i32 0, i32 0
  %35 = load ptr, ptr %34, align 8, !tbaa !22
  %36 = getelementptr inbounds i8, ptr %35, i64 1
  %37 = call i32 @strcmp(ptr noundef %28, ptr noundef %36) #12
  %38 = icmp eq i32 %37, 0
  br i1 %38, label %39, label %41

39:                                               ; preds = %27
  %40 = load i64, ptr %6, align 8, !tbaa !21
  store i64 %40, ptr %3, align 8
  store i32 1, ptr %7, align 4
  br label %46

41:                                               ; preds = %27
  br label %42

42:                                               ; preds = %41
  %43 = load i64, ptr %6, align 8, !tbaa !21
  %44 = add i64 %43, 1
  store i64 %44, ptr %6, align 8, !tbaa !21
  br label %8, !llvm.loop !63

45:                                               ; preds = %8
  store i64 -1, ptr %3, align 8
  store i32 1, ptr %7, align 4
  br label %46

46:                                               ; preds = %45, %39, %25
  call void @llvm.lifetime.end.p0(i64 8, ptr %6) #10
  %47 = load i64, ptr %3, align 8
  ret i64 %47
}