; Function Attrs: mustprogress nofree nounwind willreturn memory(read, inaccessiblemem: none) uwtable
define i64 @h5trav_getindex(ptr noundef readonly captures(none) %0, ptr noundef readonly captures(none) %1) local_unnamed_addr #8 {
  %3 = getelementptr inbounds nuw i8, ptr %0, i64 8
  %4 = load i64, ptr %3, align 8, !tbaa !7
  %.not = icmp eq i64 %4, 0
  br i1 %.not, label %._crit_edge, label %.lr.ph

.lr.ph:                                           ; preds = %2
  %5 = getelementptr inbounds nuw i8, ptr %0, i64 32
  %6 = load ptr, ptr %5, align 8, !tbaa !17
  br label %7

7:                                                ; preds = %.lr.ph, %16
  %.012 = phi i64 [ 0, %.lr.ph ], [ %17, %16 ]
  %8 = getelementptr inbounds nuw %struct.trav_path_t, ptr %6, i64 %.012
  %9 = load ptr, ptr %8, align 8, !tbaa !18
  %10 = tail call i32 @strcmp(ptr noundef nonnull dereferenceable(1) %1, ptr noundef nonnull dereferenceable(1) %9) #20
  %11 = icmp eq i32 %10, 0
  br i1 %11, label %._crit_edge, label %12

12:                                               ; preds = %7
  %13 = getelementptr inbounds nuw i8, ptr %9, i64 1
  %14 = tail call i32 @strcmp(ptr noundef nonnull dereferenceable(1) %1, ptr noundef nonnull dereferenceable(1) %13) #20
  %15 = icmp eq i32 %14, 0
  br i1 %15, label %._crit_edge, label %16

16:                                               ; preds = %12
  %17 = add nuw i64 %.012, 1
  %exitcond.not = icmp eq i64 %17, %4
  br i1 %exitcond.not, label %._crit_edge, label %7, !llvm.loop !58

._crit_edge:                                      ; preds = %7, %12, %16, %2
  %.011 = phi i64 [ -1, %2 ], [ -1, %16 ], [ %.012, %12 ], [ %.012, %7 ]
  ret i64 %.011
}